target datalayout = "e-m:e-p270:32:32-p271:32:32-p272:64:64-i64:64-i128:128-f80:128-n8:16:32:64-S128"
target triple = "x86_64-pc-linux-gnu"

%struct.expert_field = type { i32, i32 }

@hf_openflow_v4_meter_band_type = internal global i32 0, align 4
@hf_openflow_v4_meter_band_len = internal global i32 0, align 4
@hf_openflow_v4_meter_band_rate = internal global i32 0, align 4
@hf_openflow_v4_meter_band_burst_size = internal global i32 0, align 4
@hf_openflow_v4_meter_band_drop_pad = internal global i32 0, align 4
@hf_openflow_v4_meter_band_dscp_remark_prec_level = internal global i32 0, align 4
@hf_openflow_v4_meter_band_dscp_remark_pad = internal global i32 0, align 4
@hf_openflow_v4_meter_band_experimenter_experimenter = internal global i32 0, align 4
@ett_openflow_v4_meter_band = internal global i32 0, align 4
@ei_openflow_v4_meter_band_undecoded = internal global %struct.expert_field zeroinitializer, align 4
@.str.763 = private unnamed_addr constant [25 x i8] c"Unknown meter band body.\00", align 1
@.str.1152 = private unnamed_addr constant [11 x i8] c"Meter band\00", align 1
@.str.1153 = private unnamed_addr constant [30 x i8] c"Experimenter meter band body.\00", align 1

; Function Attrs: null_pointer_is_valid sspstrong uwtable
define internal i32 @dissect_openflow_meter_band_v4(ptr noundef %0, ptr noundef %1, ptr noundef %2, i32 noundef %3, i16 noundef zeroext %4) #0 {
  %6 = alloca ptr, align 8
  %7 = alloca ptr, align 8
  %8 = alloca ptr, align 8
  %9 = alloca i32, align 4
  %10 = alloca i16, align 2
  %11 = alloca ptr, align 8
  %12 = alloca ptr, align 8
  %13 = alloca i16, align 2
  %14 = alloca i16, align 2
  store ptr %0, ptr %6, align 8
  store ptr %1, ptr %7, align 8
  store ptr %2, ptr %8, align 8
  store i32 %3, ptr %9, align 4
  store i16 %4, ptr %10, align 2
  call void @llvm.lifetime.start.p0(i64 8, ptr %11) #5
  call void @llvm.lifetime.start.p0(i64 8, ptr %12) #5
  call void @llvm.lifetime.start.p0(i64 2, ptr %13) #5
  call void @llvm.lifetime.start.p0(i64 2, ptr %14) #5
  %15 = load ptr, ptr %8, align 8
  %16 = load ptr, ptr %6, align 8
  %17 = load i32, ptr %9, align 4
  %18 = load i32, ptr @ett_openflow_v4_meter_band, align 4
  %19 = call ptr @proto_tree_add_subtree(ptr noundef %15, ptr noundef %16, i32 noundef %17, i32 noundef -1, i32 noundef %18, ptr noundef %11, ptr noundef @.str.1152)
  store ptr %19, ptr %12, align 8
  %20 = load ptr, ptr %6, align 8
  %21 = load i32, ptr %9, align 4
  %22 = call zeroext i16 @tvb_get_ntohs(ptr noundef %20, i32 noundef %21)
  store i16 %22, ptr %13, align 2
  %23 = load ptr, ptr %12, align 8
  %24 = load i32, ptr @hf_openflow_v4_meter_band_type, align 4
  %25 = load ptr, ptr %6, align 8
  %26 = load i32, ptr %9, align 4
  %27 = call ptr @proto_tree_add_item(ptr noundef %23, i32 noundef %24, ptr noundef %25, i32 noundef %26, i32 noundef 2, i32 noundef 0)
  %28 = load i32, ptr %9, align 4
  %29 = add i32 %28, 2
  store i32 %29, ptr %9, align 4
  %30 = load ptr, ptr %6, align 8
  %31 = load i32, ptr %9, align 4
  %32 = call zeroext i16 @tvb_get_ntohs(ptr noundef %30, i32 noundef %31)
  store i16 %32, ptr %14, align 2
  %33 = load ptr, ptr %11, align 8
  %34 = load i16, ptr %14, align 2
  %35 = zext i16 %34 to i32
  call void @proto_item_set_len(ptr noundef %33, i32 noundef %35)
  %36 = load ptr, ptr %12, align 8
  %37 = load i32, ptr @hf_openflow_v4_meter_band_len, align 4
  %38 = load ptr, ptr %6, align 8
  %39 = load i32, ptr %9, align 4
  %40 = call ptr @proto_tree_add_item(ptr noundef %36, i32 noundef %37, ptr noundef %38, i32 noundef %39, i32 noundef 2, i32 noundef 0)
  %41 = load i32, ptr %9, align 4
  %42 = add i32 %41, 2
  store i32 %42, ptr %9, align 4
  %43 = load ptr, ptr %12, align 8
  %44 = load i32, ptr @hf_openflow_v4_meter_band_rate, align 4
  %45 = load ptr, ptr %6, align 8
  %46 = load i32, ptr %9, align 4
  %47 = call ptr @proto_tree_add_item(ptr noundef %43, i32 noundef %44, ptr noundef %45, i32 noundef %46, i32 noundef 4, i32 noundef 0)
  %48 = load i32, ptr %9, align 4
  %49 = add i32 %48, 4
  store i32 %49, ptr %9, align 4
  %50 = load ptr, ptr %12, align 8
  %51 = load i32, ptr @hf_openflow_v4_meter_band_burst_size, align 4
  %52 = load ptr, ptr %6, align 8
  %53 = load i32, ptr %9, align 4
  %54 = call ptr @proto_tree_add_item(ptr noundef %50, i32 noundef %51, ptr noundef %52, i32 noundef %53, i32 noundef 4, i32 noundef 0)
  %55 = load i32, ptr %9, align 4
  %56 = add i32 %55, 4
  store i32 %56, ptr %9, align 4
  %57 = load i16, ptr %13, align 2
  %58 = zext i16 %57 to i32
  switch i32 %58, label %110 [
    i32 1, label %59
    i32 2, label %67
    i32 65535, label %82
  ]

59:                                               ; preds = %5
  %60 = load ptr, ptr %12, align 8
  %61 = load i32, ptr @hf_openflow_v4_meter_band_drop_pad, align 4
  %62 = load ptr, ptr %6, align 8
  %63 = load i32, ptr %9, align 4
  %64 = call ptr @proto_tree_add_item(ptr noundef %60, i32 noundef %61, ptr noundef %62, i32 noundef %63, i32 noundef 4, i32 noundef 0)
  %65 = load i32, ptr %9, align 4
  %66 = add i32 %65, 4
  store i32 %66, ptr %9, align 4
  br label %131

67:                                               ; preds = %5
  %68 = load ptr, ptr %12, align 8
  %69 = load i32, ptr @hf_openflow_v4_meter_band_dscp_remark_prec_level, align 4
  %70 = load ptr, ptr %6, align 8
  %71 = load i32, ptr %9, align 4
  %72 = call ptr @proto_tree_add_item(ptr noundef %68, i32 noundef %69, ptr noundef %70, i32 noundef %71, i32 noundef 1, i32 noundef 0)
  %73 = load i32, ptr %9, align 4
  %74 = add i32 %73, 1
  store i32 %74, ptr %9, align 4
  %75 = load ptr, ptr %12, align 8
  %76 = load i32, ptr @hf_openflow_v4_meter_band_dscp_remark_pad, align 4
  %77 = load ptr, ptr %6, align 8
  %78 = load i32, ptr %9, align 4
  %79 = call ptr @proto_tree_add_item(ptr noundef %75, i32 noundef %76, ptr noundef %77, i32 noundef %78, i32 noundef 3, i32 noundef 0)
  %80 = load i32, ptr %9, align 4
  %81 = add i32 %80, 3
  store i32 %81, ptr %9, align 4
  br label %131

82:                                               ; preds = %5
  %83 = load ptr, ptr %12, align 8
  %84 = load i32, ptr @hf_openflow_v4_meter_band_experimenter_experimenter, align 4
  %85 = load ptr, ptr %6, align 8
  %86 = load i32, ptr %9, align 4
  %87 = call ptr @proto_tree_add_item(ptr noundef %83, i32 noundef %84, ptr noundef %85, i32 noundef %86, i32 noundef 4, i32 noundef 0)
  %88 = load i32, ptr %9, align 4
  %89 = add i32 %88, 4
  store i32 %89, ptr %9, align 4
  %90 = load ptr, ptr %12, align 8
  %91 = load ptr, ptr %7, align 8
  %92 = load ptr, ptr %6, align 8
  %93 = load i32, ptr %9, align 4
  %94 = load i32, ptr %9, align 4
  %95 = sub i32 %94, 16
  %96 = load i16, ptr %14, align 2
  %97 = zext i16 %96 to i32
  %98 = add i32 %95, %97
  %99 = call ptr (ptr, ptr, ptr, ptr, i32, i32, ptr, ...) @proto_tree_add_expert_format(ptr noundef %90, ptr noundef %91, ptr noundef @ei_openflow_v4_meter_band_undecoded, ptr noundef %92, i32 noundef %93, i32 noundef %98, ptr noundef @.str.1153)
  %100 = load i16, ptr %14, align 2
  %101 = zext i16 %100 to i32
  %102 = icmp sgt i32 %101, 16
  br i1 %102, label %103, label %109

103:                                              ; preds = %82
  %104 = load i16, ptr %14, align 2
  %105 = zext i16 %104 to i32
  %106 = sub i32 %105, 16
  %107 = load i32, ptr %9, align 4
  %108 = add i32 %107, %106
  store i32 %108, ptr %9, align 4
  br label %109

109:                                              ; preds = %103, %82
  br label %131

110:                                              ; preds = %5
  %111 = load ptr, ptr %12, align 8
  %112 = load ptr, ptr %7, align 8
  %113 = load ptr, ptr %6, align 8
  %114 = load i32, ptr %9, align 4
  %115 = load i32, ptr %9, align 4
  %116 = sub i32 %115, 12
  %117 = load i16, ptr %14, align 2
  %118 = zext i16 %117 to i32
  %119 = add i32 %116, %118
  %120 = call ptr (ptr, ptr, ptr, ptr, i32, i32, ptr, ...) @proto_tree_add_expert_format(ptr noundef %111, ptr noundef %112, ptr noundef @ei_openflow_v4_meter_band_undecoded, ptr noundef %113, i32 noundef %114, i32 noundef %119, ptr noundef @.str.763)
  %121 = load i16, ptr %14, align 2
  %122 = zext i16 %121 to i32
  %123 = icmp sgt i32 %122, 12
  br i1 %123, label %124, label %130

124:                                              ; preds = %110
  %125 = load i16, ptr %14, align 2
  %126 = zext i16 %125 to i32
  %127 = sub i32 %126, 12
  %128 = load i32, ptr %9, align 4
  %129 = add i32 %128, %127
  store i32 %129, ptr %9, align 4
  br label %130

130:                                              ; preds = %124, %110
  br label %131

131:                                              ; preds = %130, %109, %67, %59
  %132 = load i32, ptr %9, align 4
  call void @llvm.lifetime.end.p0(i64 2, ptr %14) #5
  call void @llvm.lifetime.end.p0(i64 2, ptr %13) #5
  call void @llvm.lifetime.end.p0(i64 8, ptr %12) #5
  call void @llvm.lifetime.end.p0(i64 8, ptr %11) #5
  ret i32 %132
}