; Function Attrs: null_pointer_is_valid sspstrong uwtable
define internal fastcc range(i32 -2147483648, 196604) i32 @dissect_openflow_meter_band_v4(ptr noundef %0, ptr noundef %1, ptr noundef %2, i32 noundef range(i32 -2147483648, 131069) %3) unnamed_addr #0 {
  %5 = alloca ptr, align 8
  call void @llvm.lifetime.start.p0(i64 8, ptr nonnull %5) #4
  %6 = load i32, ptr @ett_openflow_v4_meter_band, align 4
  %7 = call ptr @proto_tree_add_subtree(ptr noundef %2, ptr noundef %0, i32 noundef %3, i32 noundef -1, i32 noundef %6, ptr noundef nonnull %5, ptr noundef nonnull @.str.1152)
  %8 = call zeroext i16 @tvb_get_ntohs(ptr noundef %0, i32 noundef %3)
  %9 = load i32, ptr @hf_openflow_v4_meter_band_type, align 4
  %10 = call ptr @proto_tree_add_item(ptr noundef %7, i32 noundef %9, ptr noundef %0, i32 noundef %3, i32 noundef 2, i32 noundef 0)
  %11 = add nsw i32 %3, 2
  %12 = call zeroext i16 @tvb_get_ntohs(ptr noundef %0, i32 noundef %11)
  %13 = load ptr, ptr %5, align 8
  %14 = zext i16 %12 to i32
  call void @proto_item_set_len(ptr noundef %13, i32 noundef %14)
  %15 = load i32, ptr @hf_openflow_v4_meter_band_len, align 4
  %16 = call ptr @proto_tree_add_item(ptr noundef %7, i32 noundef %15, ptr noundef %0, i32 noundef %11, i32 noundef 2, i32 noundef 0)
  %17 = add nsw i32 %3, 4
  %18 = load i32, ptr @hf_openflow_v4_meter_band_rate, align 4
  %19 = call ptr @proto_tree_add_item(ptr noundef %7, i32 noundef %18, ptr noundef %0, i32 noundef %17, i32 noundef 4, i32 noundef 0)
  %20 = add nsw i32 %3, 8
  %21 = load i32, ptr @hf_openflow_v4_meter_band_burst_size, align 4
  %22 = call ptr @proto_tree_add_item(ptr noundef %7, i32 noundef %21, ptr noundef %0, i32 noundef %20, i32 noundef 4, i32 noundef 0)
  %23 = add nsw i32 %3, 12
  switch i16 %8, label %42 [
    i16 1, label %24
    i16 2, label %28
    i16 -1, label %35
  ]

24:                                               ; preds = %4
  %25 = load i32, ptr @hf_openflow_v4_meter_band_drop_pad, align 4
  %26 = call ptr @proto_tree_add_item(ptr noundef %7, i32 noundef %25, ptr noundef %0, i32 noundef %23, i32 noundef 4, i32 noundef 0)
  %27 = add nsw i32 %3, 16
  br label %46

28:                                               ; preds = %4
  %29 = load i32, ptr @hf_openflow_v4_meter_band_dscp_remark_prec_level, align 4
  %30 = call ptr @proto_tree_add_item(ptr noundef %7, i32 noundef %29, ptr noundef %0, i32 noundef %23, i32 noundef 1, i32 noundef 0)
  %31 = add nsw i32 %3, 13
  %32 = load i32, ptr @hf_openflow_v4_meter_band_dscp_remark_pad, align 4
  %33 = call ptr @proto_tree_add_item(ptr noundef %7, i32 noundef %32, ptr noundef %0, i32 noundef %31, i32 noundef 3, i32 noundef 0)
  %34 = add nsw i32 %3, 16
  br label %46

35:                                               ; preds = %4
  %36 = load i32, ptr @hf_openflow_v4_meter_band_experimenter_experimenter, align 4
  %37 = call ptr @proto_tree_add_item(ptr noundef %7, i32 noundef %36, ptr noundef %0, i32 noundef %23, i32 noundef 4, i32 noundef 0)
  %38 = add nsw i32 %3, 16
  %39 = add nsw i32 %3, %14
  %40 = call ptr (ptr, ptr, ptr, ptr, i32, i32, ptr, ...) @proto_tree_add_expert_format(ptr noundef %7, ptr noundef %1, ptr noundef nonnull @ei_openflow_v4_meter_band_undecoded, ptr noundef %0, i32 noundef %38, i32 noundef %39, ptr noundef nonnull @.str.1153)
  %41 = icmp ugt i16 %12, 16
  %spec.select = select i1 %41, i32 %39, i32 %38
  br label %46

42:                                               ; preds = %4
  %43 = add nsw i32 %3, %14
  %44 = call ptr (ptr, ptr, ptr, ptr, i32, i32, ptr, ...) @proto_tree_add_expert_format(ptr noundef %7, ptr noundef %1, ptr noundef nonnull @ei_openflow_v4_meter_band_undecoded, ptr noundef %0, i32 noundef %23, i32 noundef %43, ptr noundef nonnull @.str.763)
  %45 = icmp ugt i16 %12, 12
  %spec.select60 = select i1 %45, i32 %43, i32 %23
  br label %46

46:                                               ; preds = %42, %35, %28, %24
  %.0 = phi i32 [ %34, %28 ], [ %27, %24 ], [ %spec.select, %35 ], [ %spec.select60, %42 ]
  call void @llvm.lifetime.end.p0(i64 8, ptr nonnull %5) #4
  ret i32 %.0
}